target datalayout = "e-m:e-p270:32:32-p271:32:32-p272:64:64-i64:64-i128:128-f80:128-n8:16:32:64-S128"
target triple = "x86_64-pc-linux-gnu"

; Function Attrs: nounwind uwtable
define hidden i32 @BN_num_bits_word(i64 noundef %0) #0 {
  %2 = alloca i32, align 4
  %3 = alloca i64, align 8
  store i64 %0, ptr %3, align 8, !tbaa !20
  %4 = load i64, ptr %3, align 8, !tbaa !20
  %5 = and i64 %4, -4294967296
  %6 = icmp ne i64 %5, 0
  br i1 %6, label %7, label %55

7:                                                ; preds = %1
  %8 = load i64, ptr %3, align 8, !tbaa !20
  %9 = and i64 %8, -281474976710656
  %10 = icmp ne i64 %9, 0
  br i1 %10, label %11, label %33

11:                                               ; preds = %7
  %12 = load i64, ptr %3, align 8, !tbaa !20
  %13 = and i64 %12, -72057594037927936
  %14 = icmp ne i64 %13, 0
  br i1 %14, label %15, label %24

15:                                               ; preds = %11
  %16 = load i64, ptr %3, align 8, !tbaa !20
  %17 = lshr i64 %16, 56
  %18 = trunc i64 %17 to i32
  %19 = sext i32 %18 to i64
  %20 = getelementptr inbounds [256 x i8], ptr @BN_num_bits_word.bits, i64 0, i64 %19
  %21 = load i8, ptr %20, align 1, !tbaa !17
  %22 = zext i8 %21 to i32
  %23 = add nsw i32 %22, 56
  store i32 %23, ptr %2, align 4
  br label %101

24:                                               ; preds = %11
  %25 = load i64, ptr %3, align 8, !tbaa !20
  %26 = lshr i64 %25, 48
  %27 = trunc i64 %26 to i32
  %28 = sext i32 %27 to i64
  %29 = getelementptr inbounds [256 x i8], ptr @BN_num_bits_word.bits, i64 0, i64 %28
  %30 = load i8, ptr %29, align 1, !tbaa !17
  %31 = zext i8 %30 to i32
  %32 = add nsw i32 %31, 48
  store i32 %32, ptr %2, align 4
  br label %101

33:                                               ; preds = %7
  %34 = load i64, ptr %3, align 8, !tbaa !20
  %35 = and i64 %34, 280375465082880
  %36 = icmp ne i64 %35, 0
  br i1 %36, label %37, label %46

37:                                               ; preds = %33
  %38 = load i64, ptr %3, align 8, !tbaa !20
  %39 = lshr i64 %38, 40
  %40 = trunc i64 %39 to i32
  %41 = sext i32 %40 to i64
  %42 = getelementptr inbounds [256 x i8], ptr @BN_num_bits_word.bits, i64 0, i64 %41
  %43 = load i8, ptr %42, align 1, !tbaa !17
  %44 = zext i8 %43 to i32
  %45 = add nsw i32 %44, 40
  store i32 %45, ptr %2, align 4
  br label %101

46:                                               ; preds = %33
  %47 = load i64, ptr %3, align 8, !tbaa !20
  %48 = lshr i64 %47, 32
  %49 = trunc i64 %48 to i32
  %50 = sext i32 %49 to i64
  %51 = getelementptr inbounds [256 x i8], ptr @BN_num_bits_word.bits, i64 0, i64 %50
  %52 = load i8, ptr %51, align 1, !tbaa !17
  %53 = zext i8 %52 to i32
  %54 = add nsw i32 %53, 32
  store i32 %54, ptr %2, align 4
  br label %101

55:                                               ; preds = %1
  %56 = load i64, ptr %3, align 8, !tbaa !20
  %57 = and i64 %56, 4294901760
  %58 = icmp ne i64 %57, 0
  br i1 %58, label %59, label %81

59:                                               ; preds = %55
  %60 = load i64, ptr %3, align 8, !tbaa !20
  %61 = and i64 %60, 4278190080
  %62 = icmp ne i64 %61, 0
  br i1 %62, label %63, label %72

63:                                               ; preds = %59
  %64 = load i64, ptr %3, align 8, !tbaa !20
  %65 = lshr i64 %64, 24
  %66 = trunc i64 %65 to i32
  %67 = sext i32 %66 to i64
  %68 = getelementptr inbounds [256 x i8], ptr @BN_num_bits_word.bits, i64 0, i64 %67
  %69 = load i8, ptr %68, align 1, !tbaa !17
  %70 = zext i8 %69 to i32
  %71 = add nsw i32 %70, 24
  store i32 %71, ptr %2, align 4
  br label %101

72:                                               ; preds = %59
  %73 = load i64, ptr %3, align 8, !tbaa !20
  %74 = lshr i64 %73, 16
  %75 = trunc i64 %74 to i32
  %76 = sext i32 %75 to i64
  %77 = getelementptr inbounds [256 x i8], ptr @BN_num_bits_word.bits, i64 0, i64 %76
  %78 = load i8, ptr %77, align 1, !tbaa !17
  %79 = zext i8 %78 to i32
  %80 = add nsw i32 %79, 16
  store i32 %80, ptr %2, align 4
  br label %101

81:                                               ; preds = %55
  %82 = load i64, ptr %3, align 8, !tbaa !20
  %83 = and i64 %82, 65280
  %84 = icmp ne i64 %83, 0
  br i1 %84, label %85, label %94

85:                                               ; preds = %81
  %86 = load i64, ptr %3, align 8, !tbaa !20
  %87 = lshr i64 %86, 8
  %88 = trunc i64 %87 to i32
  %89 = sext i32 %88 to i64
  %90 = getelementptr inbounds [256 x i8], ptr @BN_num_bits_word.bits, i64 0, i64 %89
  %91 = load i8, ptr %90, align 1, !tbaa !17
  %92 = zext i8 %91 to i32
  %93 = add nsw i32 %92, 8
  store i32 %93, ptr %2, align 4
  br label %101

94:                                               ; preds = %81
  %95 = load i64, ptr %3, align 8, !tbaa !20
  %96 = trunc i64 %95 to i32
  %97 = sext i32 %96 to i64
  %98 = getelementptr inbounds [256 x i8], ptr @BN_num_bits_word.bits, i64 0, i64 %97
  %99 = load i8, ptr %98, align 1, !tbaa !17
  %100 = zext i8 %99 to i32
  store i32 %100, ptr %2, align 4
  br label %101

101:                                              ; preds = %94, %85, %72, %63, %46, %37, %24, %15
  %102 = load i32, ptr %2, align 4
  ret i32 %102
}