; Function Attrs: mustprogress nofree norecurse nosync nounwind willreturn memory(none) uwtable
define hidden range(i32 0, 312) i32 @BN_num_bits_word(i64 noundef %0) local_unnamed_addr #9 {
  %.not = icmp ult i64 %0, 4294967296
  br i1 %.not, label %29, label %2

2:                                                ; preds = %1
  %.not19 = icmp ult i64 %0, 281474976710656
  br i1 %.not19, label %16, label %3

3:                                                ; preds = %2
  %.not21 = icmp ult i64 %0, 72057594037927936
  br i1 %.not21, label %10, label %4

4:                                                ; preds = %3
  %5 = lshr i64 %0, 56
  %6 = getelementptr inbounds nuw [256 x i8], ptr @BN_num_bits_word.bits, i64 0, i64 %5
  %7 = load i8, ptr %6, align 1, !tbaa !17
  %8 = zext i8 %7 to i32
  %9 = add nuw nsw i32 %8, 56
  br label %54

10:                                               ; preds = %3
  %11 = lshr i64 %0, 48
  %12 = getelementptr inbounds nuw [256 x i8], ptr @BN_num_bits_word.bits, i64 0, i64 %11
  %13 = load i8, ptr %12, align 1, !tbaa !17
  %14 = zext i8 %13 to i32
  %15 = add nuw nsw i32 %14, 48
  br label %54

16:                                               ; preds = %2
  %.not20 = icmp samesign ult i64 %0, 1099511627776
  br i1 %.not20, label %23, label %17

17:                                               ; preds = %16
  %18 = lshr i64 %0, 40
  %19 = getelementptr inbounds nuw [256 x i8], ptr @BN_num_bits_word.bits, i64 0, i64 %18
  %20 = load i8, ptr %19, align 1, !tbaa !17
  %21 = zext i8 %20 to i32
  %22 = add nuw nsw i32 %21, 40
  br label %54

23:                                               ; preds = %16
  %24 = lshr i64 %0, 32
  %25 = getelementptr inbounds nuw [256 x i8], ptr @BN_num_bits_word.bits, i64 0, i64 %24
  %26 = load i8, ptr %25, align 1, !tbaa !17
  %27 = zext i8 %26 to i32
  %28 = add nuw nsw i32 %27, 32
  br label %54

29:                                               ; preds = %1
  %.not16 = icmp samesign ult i64 %0, 65536
  br i1 %.not16, label %43, label %30

30:                                               ; preds = %29
  %.not18 = icmp samesign ult i64 %0, 16777216
  br i1 %.not18, label %37, label %31

31:                                               ; preds = %30
  %32 = lshr i64 %0, 24
  %33 = getelementptr inbounds nuw [256 x i8], ptr @BN_num_bits_word.bits, i64 0, i64 %32
  %34 = load i8, ptr %33, align 1, !tbaa !17
  %35 = zext i8 %34 to i32
  %36 = add nuw nsw i32 %35, 24
  br label %54

37:                                               ; preds = %30
  %38 = lshr i64 %0, 16
  %39 = getelementptr inbounds nuw [256 x i8], ptr @BN_num_bits_word.bits, i64 0, i64 %38
  %40 = load i8, ptr %39, align 1, !tbaa !17
  %41 = zext i8 %40 to i32
  %42 = add nuw nsw i32 %41, 16
  br label %54

43:                                               ; preds = %29
  %.not17 = icmp samesign ult i64 %0, 256
  br i1 %.not17, label %50, label %44

44:                                               ; preds = %43
  %45 = lshr i64 %0, 8
  %46 = getelementptr inbounds nuw [256 x i8], ptr @BN_num_bits_word.bits, i64 0, i64 %45
  %47 = load i8, ptr %46, align 1, !tbaa !17
  %48 = zext i8 %47 to i32
  %49 = add nuw nsw i32 %48, 8
  br label %54

50:                                               ; preds = %43
  %51 = getelementptr inbounds nuw [256 x i8], ptr @BN_num_bits_word.bits, i64 0, i64 %0
  %52 = load i8, ptr %51, align 1, !tbaa !17
  %53 = zext i8 %52 to i32
  br label %54

54:                                               ; preds = %50, %44, %37, %31, %23, %17, %10, %4
  %.0 = phi i32 [ %9, %4 ], [ %15, %10 ], [ %22, %17 ], [ %28, %23 ], [ %36, %31 ], [ %42, %37 ], [ %49, %44 ], [ %53, %50 ]
  ret i32 %.0
}